SF:C:\Users\shun\Desktop\autd3\autd3-link-visualizer\src\backend\null.rs
FN:63,_RNvXNtNtCs45dNDbvTNqu_21autd3_link_visualizer7backend4nullNtB2_11NullBackendNtB4_7Backend10plot_phase
FN:56,_RNvXNtNtCs45dNDbvTNqu_21autd3_link_visualizer7backend4nullNtB2_11NullBackendNtB4_7Backend15plot_modulation
FN:44,_RNvXNtNtCs45dNDbvTNqu_21autd3_link_visualizer7backend4nullNtB2_11NullBackendNtB4_7Backend7plot_2d
FN:26,_RNvXNtNtCs45dNDbvTNqu_21autd3_link_visualizer7backend4nullNtB2_11NullBackendNtB4_7Backend3new
FN:34,_RNvXNtNtCs45dNDbvTNqu_21autd3_link_visualizer7backend4nullNtB2_11NullBackendNtB4_7Backend7plot_1d
FN:30,_RNvXNtNtCs45dNDbvTNqu_21autd3_link_visualizer7backend4nullNtB2_11NullBackendNtB4_7Backend10initialize
FNDA:0,_RNvXNtNtCs45dNDbvTNqu_21autd3_link_visualizer7backend4nullNtB2_11NullBackendNtB4_7Backend10plot_phase
FNDA:0,_RNvXNtNtCs45dNDbvTNqu_21autd3_link_visualizer7backend4nullNtB2_11NullBackendNtB4_7Backend15plot_modulation
FNDA:0,_RNvXNtNtCs45dNDbvTNqu_21autd3_link_visualizer7backend4nullNtB2_11NullBackendNtB4_7Backend7plot_2d
FNDA:0,_RNvXNtNtCs45dNDbvTNqu_21autd3_link_visualizer7backend4nullNtB2_11NullBackendNtB4_7Backend3new
FNDA:0,_RNvXNtNtCs45dNDbvTNqu_21autd3_link_visualizer7backend4nullNtB2_11NullBackendNtB4_7Backend7plot_1d
FNDA:0,_RNvXNtNtCs45dNDbvTNqu_21autd3_link_visualizer7backend4nullNtB2_11NullBackendNtB4_7Backend10initialize
FNF:6
FNH:0
DA:26,0
DA:27,0
DA:28,0
DA:30,0
DA:31,0
DA:32,0
DA:34,0
DA:35,0
DA:36,0
DA:37,0
DA:38,0
DA:39,0
DA:40,0
DA:41,0
DA:42,0
DA:44,0
DA:45,0
DA:46,0
DA:47,0
DA:48,0
DA:49,0
DA:50,0
DA:51,0
DA:52,0
DA:53,0
DA:54,0
DA:56,0
DA:57,0
DA:58,0
DA:59,0
DA:60,0
DA:61,0
DA:63,0
DA:64,0
DA:65,0
DA:66,0
DA:67,0
DA:68,0
DA:69,0
BRF:0
BRH:0
LF:39
LH:0
end_of_record
SF:C:\Users\shun\Desktop\autd3\autd3-link-visualizer\src\backend\plotters.rs
FN:319,_RNCINvMs_NtNtCs45dNDbvTNqu_21autd3_link_visualizer7backend8plottersNtB7_15PlottersBackend15plot_phase_implpEs0_0Bb_
FN:372,_RNCINvMs_NtNtCs45dNDbvTNqu_21autd3_link_visualizer7backend8plottersNtB7_15PlottersBackend15plot_phase_implpEs6_0Bb_
FN:144,_RINvMs_NtNtCs45dNDbvTNqu_21autd3_link_visualizer7backend8plottersNtB5_15PlottersBackend12plot_2d_implpEB9_
FN:168,_RNCINvMs_NtNtCs45dNDbvTNqu_21autd3_link_visualizer7backend8plottersNtB7_15PlottersBackend12plot_2d_implpE0Bb_
FN:321,_RNCINvMs_NtNtCs45dNDbvTNqu_21autd3_link_visualizer7backend8plottersNtB7_15PlottersBackend15plot_phase_implpEs1_0Bb_
FN:404,_RNCINvMs_NtNtCs45dNDbvTNqu_21autd3_link_visualizer7backend8plottersNtB7_15PlottersBackend15plot_phase_implpEs7_0Bb_
FN:54,_RINvMs_NtNtCs45dNDbvTNqu_21autd3_link_visualizer7backend8plottersNtB5_15PlottersBackend20plot_modulation_implpEB9_
FN:315,_RNCINvMs_NtNtCs45dNDbvTNqu_21autd3_link_visualizer7backend8plottersNtB7_15PlottersBackend15plot_phase_implpEs_0Bb_
FN:364,_RNCINvMs_NtNtCs45dNDbvTNqu_21autd3_link_visualizer7backend8plottersNtB7_15PlottersBackend15plot_phase_implpEs4_0Bb_
FN:540,_RNCNvXs0_NtNtCs45dNDbvTNqu_21autd3_link_visualizer7backend8plottersNtB7_15PlottersBackendNtB9_7Backend15plot_modulations_0Bb_
FN:504,_RNCNvXs0_NtNtCs45dNDbvTNqu_21autd3_link_visualizer7backend8plottersNtB7_15PlottersBackendNtB9_7Backend7plot_2ds0_0Bb_
FN:565,_RNCNvXs0_NtNtCs45dNDbvTNqu_21autd3_link_visualizer7backend8plottersNtB7_15PlottersBackendNtB9_7Backend10plot_phases_0Bb_
FN:531,_RNvXs0_NtNtCs45dNDbvTNqu_21autd3_link_visualizer7backend8plottersNtB5_15PlottersBackendNtB7_7Backend15plot_modulation
FN:459,_RNCNvXs0_NtNtCs45dNDbvTNqu_21autd3_link_visualizer7backend8plottersNtB7_15PlottersBackendNtB9_7Backend7plot_1ds_0Bb_
FN:173,_RNCINvMs_NtNtCs45dNDbvTNqu_21autd3_link_visualizer7backend8plottersNtB7_15PlottersBackend12plot_2d_implpEs_0Bb_
FN:323,_RNCINvMs_NtNtCs45dNDbvTNqu_21autd3_link_visualizer7backend8plottersNtB7_15PlottersBackend15plot_phase_implpEs2_0Bb_
FN:415,_RNCINvMs_NtNtCs45dNDbvTNqu_21autd3_link_visualizer7backend8plottersNtB7_15PlottersBackend15plot_phase_implpEs8_0Bb_
FN:107,_RNCINvMs_NtNtCs45dNDbvTNqu_21autd3_link_visualizer7backend8plottersNtB7_15PlottersBackend12plot_1d_implpE0Bb_
FN:178,_RNCINvMs_NtNtCs45dNDbvTNqu_21autd3_link_visualizer7backend8plottersNtB7_15PlottersBackend12plot_2d_implpEs0_0Bb_
FN:82,_RNCINvMs_NtNtCs45dNDbvTNqu_21autd3_link_visualizer7backend8plottersNtB7_15PlottersBackend20plot_modulation_implpE0Bb_
FN:273,_RNCINvMs_NtNtCs45dNDbvTNqu_21autd3_link_visualizer7backend8plottersNtB7_15PlottersBackend12plot_2d_implpEs3_0Bb_
FN:441,_RNvXs0_NtNtCs45dNDbvTNqu_21autd3_link_visualizer7backend8plottersNtB5_15PlottersBackendNtB7_7Backend10initialize
FN:500,_RNCNvXs0_NtNtCs45dNDbvTNqu_21autd3_link_visualizer7backend8plottersNtB7_15PlottersBackendNtB9_7Backend7plot_2ds_0Bb_
FN:555,_RNvXs0_NtNtCs45dNDbvTNqu_21autd3_link_visualizer7backend8plottersNtB5_15PlottersBackendNtB7_7Backend10plot_phase
FN:463,_RNCNvXs0_NtNtCs45dNDbvTNqu_21autd3_link_visualizer7backend8plottersNtB7_15PlottersBackendNtB9_7Backend7plot_1ds0_0Bb_
FN:437,_RNvXs0_NtNtCs45dNDbvTNqu_21autd3_link_visualizer7backend8plottersNtB5_15PlottersBackendNtB7_7Backend3new
FN:484,_RNvXs0_NtNtCs45dNDbvTNqu_21autd3_link_visualizer7backend8plottersNtB5_15PlottersBackendNtB7_7Backend7plot_2d
FN:536,_RNCNvXs0_NtNtCs45dNDbvTNqu_21autd3_link_visualizer7backend8plottersNtB7_15PlottersBackendNtB9_7Backend15plot_modulation0Bb_
FN:291,_RINvMs_NtNtCs45dNDbvTNqu_21autd3_link_visualizer7backend8plottersNtB5_15PlottersBackend15plot_phase_implpEB9_
FN:134,_RNCINvMs_NtNtCs45dNDbvTNqu_21autd3_link_visualizer7backend8plottersNtB7_15PlottersBackend12plot_1d_implpEs_0Bb_
FN:233,_RNCINvMs_NtNtCs45dNDbvTNqu_21autd3_link_visualizer7backend8plottersNtB7_15PlottersBackend12plot_2d_implpEs1_0Bb_
FN:23,_RNvXs2_NtNtCs45dNDbvTNqu_21autd3_link_visualizer7backend8plottersNtB5_10PlotConfigNtNtCsidEKlJ1ZQX8_4core3fmt5Debug3fmt
FN:453,_RNCNvXs0_NtNtCs45dNDbvTNqu_21autd3_link_visualizer7backend8plottersNtB7_15PlottersBackendNtB9_7Backend7plot_1d0Bb_
FN:36,_RNvXNtNtCs45dNDbvTNqu_21autd3_link_visualizer7backend8plottersNtB2_10PlotConfigNtNtCsidEKlJ1ZQX8_4core7default7Default7default
FN:494,_RNCNvXs0_NtNtCs45dNDbvTNqu_21autd3_link_visualizer7backend8plottersNtB7_15PlottersBackendNtB9_7Backend7plot_2d0Bb_
FN:445,_RNvXs0_NtNtCs45dNDbvTNqu_21autd3_link_visualizer7backend8plottersNtB5_15PlottersBackendNtB7_7Backend7plot_1d
FN:23,_RNvXs1_NtNtCs45dNDbvTNqu_21autd3_link_visualizer7backend8plottersNtB5_10PlotConfigNtNtCsidEKlJ1ZQX8_4core5clone5Clone5cloneB9_
FN:264,_RNCINvMs_NtNtCs45dNDbvTNqu_21autd3_link_visualizer7backend8plottersNtB7_15PlottersBackend12plot_2d_implpEs2_0Bb_
FN:315,_RNCNCINvMs_NtNtCs45dNDbvTNqu_21autd3_link_visualizer7backend8plottersNtB9_15PlottersBackend15plot_phase_implpEs_00Bd_
FN:365,_RNCINvMs_NtNtCs45dNDbvTNqu_21autd3_link_visualizer7backend8plottersNtB7_15PlottersBackend15plot_phase_implpEs5_0Bb_
FN:91,_RINvMs_NtNtCs45dNDbvTNqu_21autd3_link_visualizer7backend8plottersNtB5_15PlottersBackend12plot_1d_implpEB9_
FN:310,_RNCINvMs_NtNtCs45dNDbvTNqu_21autd3_link_visualizer7backend8plottersNtB7_15PlottersBackend15plot_phase_implpE0Bb_
FN:325,_RNCINvMs_NtNtCs45dNDbvTNqu_21autd3_link_visualizer7backend8plottersNtB7_15PlottersBackend15plot_phase_implpEs3_0Bb_
FN:561,_RNCNvXs0_NtNtCs45dNDbvTNqu_21autd3_link_visualizer7backend8plottersNtB7_15PlottersBackendNtB9_7Backend10plot_phase0Bb_
FNDA:0,_RNCINvMs_NtNtCs45dNDbvTNqu_21autd3_link_visualizer7backend8plottersNtB7_15PlottersBackend15plot_phase_implpEs0_0Bb_
FNDA:0,_RNCINvMs_NtNtCs45dNDbvTNqu_21autd3_link_visualizer7backend8plottersNtB7_15PlottersBackend15plot_phase_implpEs6_0Bb_
FNDA:0,_RINvMs_NtNtCs45dNDbvTNqu_21autd3_link_visualizer7backend8plottersNtB5_15PlottersBackend12plot_2d_implpEB9_
FNDA:0,_RNCINvMs_NtNtCs45dNDbvTNqu_21autd3_link_visualizer7backend8plottersNtB7_15PlottersBackend12plot_2d_implpE0Bb_
FNDA:0,_RNCINvMs_NtNtCs45dNDbvTNqu_21autd3_link_visualizer7backend8plottersNtB7_15PlottersBackend15plot_phase_implpEs1_0Bb_
FNDA:0,_RNCINvMs_NtNtCs45dNDbvTNqu_21autd3_link_visualizer7backend8plottersNtB7_15PlottersBackend15plot_phase_implpEs7_0Bb_
FNDA:0,_RINvMs_NtNtCs45dNDbvTNqu_21autd3_link_visualizer7backend8plottersNtB5_15PlottersBackend20plot_modulation_implpEB9_
FNDA:0,_RNCINvMs_NtNtCs45dNDbvTNqu_21autd3_link_visualizer7backend8plottersNtB7_15PlottersBackend15plot_phase_implpEs_0Bb_
FNDA:0,_RNCINvMs_NtNtCs45dNDbvTNqu_21autd3_link_visualizer7backend8plottersNtB7_15PlottersBackend15plot_phase_implpEs4_0Bb_
FNDA:0,_RNCNvXs0_NtNtCs45dNDbvTNqu_21autd3_link_visualizer7backend8plottersNtB7_15PlottersBackendNtB9_7Backend15plot_modulations_0Bb_
FNDA:0,_RNCNvXs0_NtNtCs45dNDbvTNqu_21autd3_link_visualizer7backend8plottersNtB7_15PlottersBackendNtB9_7Backend7plot_2ds0_0Bb_
FNDA:0,_RNCNvXs0_NtNtCs45dNDbvTNqu_21autd3_link_visualizer7backend8plottersNtB7_15PlottersBackendNtB9_7Backend10plot_phases_0Bb_
FNDA:0,_RNvXs0_NtNtCs45dNDbvTNqu_21autd3_link_visualizer7backend8plottersNtB5_15PlottersBackendNtB7_7Backend15plot_modulation
FNDA:0,_RNCNvXs0_NtNtCs45dNDbvTNqu_21autd3_link_visualizer7backend8plottersNtB7_15PlottersBackendNtB9_7Backend7plot_1ds_0Bb_
FNDA:0,_RNCINvMs_NtNtCs45dNDbvTNqu_21autd3_link_visualizer7backend8plottersNtB7_15PlottersBackend12plot_2d_implpEs_0Bb_
FNDA:0,_RNCINvMs_NtNtCs45dNDbvTNqu_21autd3_link_visualizer7backend8plottersNtB7_15PlottersBackend15plot_phase_implpEs2_0Bb_
FNDA:0,_RNCINvMs_NtNtCs45dNDbvTNqu_21autd3_link_visualizer7backend8plottersNtB7_15PlottersBackend15plot_phase_implpEs8_0Bb_
FNDA:0,_RNCINvMs_NtNtCs45dNDbvTNqu_21autd3_link_visualizer7backend8plottersNtB7_15PlottersBackend12plot_1d_implpE0Bb_
FNDA:0,_RNCINvMs_NtNtCs45dNDbvTNqu_21autd3_link_visualizer7backend8plottersNtB7_15PlottersBackend12plot_2d_implpEs0_0Bb_
FNDA:0,_RNCINvMs_NtNtCs45dNDbvTNqu_21autd3_link_visualizer7backend8plottersNtB7_15PlottersBackend20plot_modulation_implpE0Bb_
FNDA:0,_RNCINvMs_NtNtCs45dNDbvTNqu_21autd3_link_visualizer7backend8plottersNtB7_15PlottersBackend12plot_2d_implpEs3_0Bb_
FNDA:0,_RNvXs0_NtNtCs45dNDbvTNqu_21autd3_link_visualizer7backend8plottersNtB5_15PlottersBackendNtB7_7Backend10initialize
FNDA:0,_RNCNvXs0_NtNtCs45dNDbvTNqu_21autd3_link_visualizer7backend8plottersNtB7_15PlottersBackendNtB9_7Backend7plot_2ds_0Bb_
FNDA:0,_RNvXs0_NtNtCs45dNDbvTNqu_21autd3_link_visualizer7backend8plottersNtB5_15PlottersBackendNtB7_7Backend10plot_phase
FNDA:0,_RNCNvXs0_NtNtCs45dNDbvTNqu_21autd3_link_visualizer7backend8plottersNtB7_15PlottersBackendNtB9_7Backend7plot_1ds0_0Bb_
FNDA:0,_RNvXs0_NtNtCs45dNDbvTNqu_21autd3_link_visualizer7backend8plottersNtB5_15PlottersBackendNtB7_7Backend3new
FNDA:0,_RNvXs0_NtNtCs45dNDbvTNqu_21autd3_link_visualizer7backend8plottersNtB5_15PlottersBackendNtB7_7Backend7plot_2d
FNDA:0,_RNCNvXs0_NtNtCs45dNDbvTNqu_21autd3_link_visualizer7backend8plottersNtB7_15PlottersBackendNtB9_7Backend15plot_modulation0Bb_
FNDA:0,_RINvMs_NtNtCs45dNDbvTNqu_21autd3_link_visualizer7backend8plottersNtB5_15PlottersBackend15plot_phase_implpEB9_
FNDA:0,_RNCINvMs_NtNtCs45dNDbvTNqu_21autd3_link_visualizer7backend8plottersNtB7_15PlottersBackend12plot_1d_implpEs_0Bb_
FNDA:0,_RNCINvMs_NtNtCs45dNDbvTNqu_21autd3_link_visualizer7backend8plottersNtB7_15PlottersBackend12plot_2d_implpEs1_0Bb_
FNDA:0,_RNvXs2_NtNtCs45dNDbvTNqu_21autd3_link_visualizer7backend8plottersNtB5_10PlotConfigNtNtCsidEKlJ1ZQX8_4core3fmt5Debug3fmt
FNDA:0,_RNCNvXs0_NtNtCs45dNDbvTNqu_21autd3_link_visualizer7backend8plottersNtB7_15PlottersBackendNtB9_7Backend7plot_1d0Bb_
FNDA:0,_RNvXNtNtCs45dNDbvTNqu_21autd3_link_visualizer7backend8plottersNtB2_10PlotConfigNtNtCsidEKlJ1ZQX8_4core7default7Default7default
FNDA:0,_RNCNvXs0_NtNtCs45dNDbvTNqu_21autd3_link_visualizer7backend8plottersNtB7_15PlottersBackendNtB9_7Backend7plot_2d0Bb_
FNDA:0,_RNvXs0_NtNtCs45dNDbvTNqu_21autd3_link_visualizer7backend8plottersNtB5_15PlottersBackendNtB7_7Backend7plot_1d
FNDA:0,_RNvXs1_NtNtCs45dNDbvTNqu_21autd3_link_visualizer7backend8plottersNtB5_10PlotConfigNtNtCsidEKlJ1ZQX8_4core5clone5Clone5cloneB9_
FNDA:0,_RNCINvMs_NtNtCs45dNDbvTNqu_21autd3_link_visualizer7backend8plottersNtB7_15PlottersBackend12plot_2d_implpEs2_0Bb_
FNDA:0,_RNCNCINvMs_NtNtCs45dNDbvTNqu_21autd3_link_visualizer7backend8plottersNtB9_15PlottersBackend15plot_phase_implpEs_00Bd_
FNDA:0,_RNCINvMs_NtNtCs45dNDbvTNqu_21autd3_link_visualizer7backend8plottersNtB7_15PlottersBackend15plot_phase_implpEs5_0Bb_
FNDA:0,_RINvMs_NtNtCs45dNDbvTNqu_21autd3_link_visualizer7backend8plottersNtB5_15PlottersBackend12plot_1d_implpEB9_
FNDA:0,_RNCINvMs_NtNtCs45dNDbvTNqu_21autd3_link_visualizer7backend8plottersNtB7_15PlottersBackend15plot_phase_implpE0Bb_
FNDA:0,_RNCINvMs_NtNtCs45dNDbvTNqu_21autd3_link_visualizer7backend8plottersNtB7_15PlottersBackend15plot_phase_implpEs3_0Bb_
FNDA:0,_RNCNvXs0_NtNtCs45dNDbvTNqu_21autd3_link_visualizer7backend8plottersNtB7_15PlottersBackendNtB9_7Backend10plot_phase0Bb_
FNF:44
FNH:0
DA:23,0
DA:36,0
DA:37,0
DA:38,0
DA:39,0
DA:40,0
DA:41,0
DA:42,0
DA:43,0
DA:44,0
DA:45,0
DA:46,0
DA:47,0
DA:54,0
DA:55,0
DA:56,0
DA:57,0
DA:58,0
DA:59,0
DA:60,0
DA:61,0
DA:62,0
DA:63,0
DA:65,0
DA:66,0
DA:67,0
DA:68,0
DA:69,0
DA:71,0
DA:72,0
DA:73,0
DA:74,0
DA:75,0
DA:76,0
DA:77,0
DA:78,0
DA:79,0
DA:81,0
DA:82,0
DA:83,0
DA:84,0
DA:86,0
DA:88,0
DA:89,0
DA:91,0
DA:92,0
DA:93,0
DA:94,0
DA:95,0
DA:96,0
DA:97,0
DA:98,0
DA:99,0
DA:100,0
DA:101,0
DA:102,0
DA:103,0
DA:105,0
DA:106,0
DA:107,0
DA:108,0
DA:109,0
DA:110,0
DA:111,0
DA:113,0
DA:114,0
DA:115,0
DA:116,0
DA:117,0
DA:119,0
DA:120,0
DA:121,0
DA:122,0
DA:123,0
DA:124,0
DA:125,0
DA:126,0
DA:127,0
DA:128,0
DA:130,0
DA:131,0
DA:132,0
DA:133,0
DA:134,0
DA:135,0
DA:136,0
DA:138,0
DA:140,0
DA:141,0
DA:144,0
DA:145,0
DA:146,0
DA:147,0
DA:148,0
DA:149,0
DA:150,0
DA:151,0
DA:152,0
DA:153,0
DA:154,0
DA:155,0
DA:156,0
DA:157,0
DA:158,0
DA:159,0
DA:161,0
DA:162,0
DA:163,0
DA:164,0
DA:165,0
DA:166,0
DA:167,0
DA:168,0
DA:169,0
DA:170,0
DA:171,0
DA:172,0
DA:173,0
DA:174,0
DA:175,0
DA:176,0
DA:177,0
DA:178,0
DA:179,0
DA:180,0
DA:181,0
DA:182,0
DA:183,0
DA:184,0
DA:185,0
DA:186,0
DA:187,0
DA:188,0
DA:189,0
DA:190,0
DA:191,0
DA:192,0
DA:193,0
DA:194,0
DA:195,0
DA:196,0
DA:197,0
DA:198,0
DA:199,0
DA:200,0
DA:201,0
DA:202,0
DA:203,0
DA:204,0
DA:205,0
DA:206,0
DA:207,0
DA:208,0
DA:210,0
DA:211,0
DA:212,0
DA:213,0
DA:214,0
DA:215,0
DA:216,0
DA:217,0
DA:219,0
DA:220,0
DA:221,0
DA:222,0
DA:223,0
DA:224,0
DA:225,0
DA:226,0
DA:227,0
DA:228,0
DA:230,0
DA:231,0
DA:232,0
DA:233,0
DA:234,0
DA:235,0
DA:236,0
DA:237,0
DA:238,0
DA:239,0
DA:240,0
DA:241,0
DA:242,0
DA:243,0
DA:247,0
DA:248,0
DA:249,0
DA:250,0
DA:251,0
DA:252,0
DA:253,0
DA:254,0
DA:255,0
DA:257,0
DA:258,0
DA:259,0
DA:260,0
DA:261,0
DA:262,0
DA:263,0
DA:264,0
DA:265,0
DA:266,0
DA:267,0
DA:268,0
DA:269,0
DA:270,0
DA:271,0
DA:273,0
DA:274,0
DA:275,0
DA:276,0
DA:277,0
DA:278,0
DA:280,0
DA:281,0
DA:282,0
DA:283,0
DA:286,0
DA:288,0
DA:289,0
DA:291,0
DA:292,0
DA:293,0
DA:294,0
DA:295,0
DA:296,0
DA:297,0
DA:298,0
DA:299,0
DA:300,0
DA:301,0
DA:303,0
DA:304,0
DA:305,0
DA:306,0
DA:307,0
DA:308,0
DA:309,0
DA:310,0
DA:311,0
DA:312,0
DA:313,0
DA:314,0
DA:315,0
DA:316,0
DA:317,0
DA:318,0
DA:319,0
DA:320,0
DA:321,0
DA:322,0
DA:323,0
DA:324,0
DA:325,0
DA:326,0
DA:327,0
DA:328,0
DA:329,0
DA:330,0
DA:331,0
DA:332,0
DA:333,0
DA:334,0
DA:335,0
DA:336,0
DA:337,0
DA:338,0
DA:339,0
DA:340,0
DA:341,0
DA:342,0
DA:343,0
DA:344,0
DA:345,0
DA:346,0
DA:347,0
DA:348,0
DA:349,0
DA:350,0
DA:352,0
DA:353,0
DA:354,0
DA:355,0
DA:356,0
DA:357,0
DA:358,0
DA:359,0
DA:360,0
DA:361,0
DA:362,0
DA:363,0
DA:364,0
DA:365,0
DA:366,0
DA:367,0
DA:368,0
DA:369,0
DA:370,0
DA:372,0
DA:373,0
DA:374,0
DA:375,0
DA:376,0
DA:377,0
DA:378,0
DA:379,0
DA:380,0
DA:381,0
DA:382,0
DA:386,0
DA:387,0
DA:388,0
DA:389,0
DA:390,0
DA:391,0
DA:392,0
DA:393,0
DA:394,0
DA:396,0
DA:397,0
DA:398,0
DA:399,0
DA:400,0
DA:401,0
DA:402,0
DA:403,0
DA:404,0
DA:405,0
DA:406,0
DA:407,0
DA:408,0
DA:410,0
DA:412,0
DA:413,0
DA:415,0
DA:416,0
DA:417,0
DA:418,0
DA:419,0
DA:420,0
DA:422,0
DA:423,0
DA:424,0
DA:425,0
DA:428,0
DA:430,0
DA:431,0
DA:437,0
DA:438,0
DA:439,0
DA:441,0
DA:442,0
DA:443,0
DA:445,0
DA:446,0
DA:447,0
DA:448,0
DA:449,0
DA:450,0
DA:451,0
DA:452,0
DA:453,0
DA:454,0
DA:455,0
DA:457,0
DA:458,0
DA:459,0
DA:460,0
DA:461,0
DA:462,0
DA:463,0
DA:464,0
DA:465,0
DA:466,0
DA:467,0
DA:468,0
DA:469,0
DA:470,0
DA:471,0
DA:473,0
DA:474,0
DA:475,0
DA:476,0
DA:477,0
DA:478,0
DA:479,0
DA:480,0
DA:482,0
DA:484,0
DA:485,0
DA:486,0
DA:487,0
DA:488,0
DA:489,0
DA:490,0
DA:491,0
DA:492,0
DA:493,0
DA:494,0
DA:495,0
DA:496,0
DA:498,0
DA:499,0
DA:500,0
DA:501,0
DA:502,0
DA:503,0
DA:504,0
DA:505,0
DA:506,0
DA:507,0
DA:508,0
DA:509,0
DA:510,0
DA:511,0
DA:512,0
DA:513,0
DA:514,0
DA:515,0
DA:517,0
DA:518,0
DA:519,0
DA:520,0
DA:521,0
DA:522,0
DA:523,0
DA:524,0
DA:525,0
DA:526,0
DA:527,0
DA:529,0
DA:531,0
DA:532,0
DA:533,0
DA:534,0
DA:535,0
DA:536,0
DA:537,0
DA:538,0
DA:540,0
DA:541,0
DA:542,0
DA:543,0
DA:544,0
DA:545,0
DA:547,0
DA:548,0
DA:549,0
DA:550,0
DA:551,0
DA:553,0
DA:555,0
DA:556,0
DA:557,0
DA:558,0
DA:559,0
DA:560,0
DA:561,0
DA:562,0
DA:563,0
DA:565,0
DA:566,0
DA:567,0
DA:568,0
DA:569,0
DA:570,0
DA:571,0
DA:573,0
DA:574,0
DA:575,0
DA:576,0
DA:577,0
DA:578,0
DA:580,0
BRF:0
BRH:0
LF:519
LH:0
end_of_record
SF:C:\Users\shun\Desktop\autd3\autd3-link-visualizer\src\backend\python.rs
FN:133,_RNCNvXs0_NtNtCs45dNDbvTNqu_21autd3_link_visualizer7backend6pythonNtB7_13PythonBackendNtB9_7Backend7plot_1d0Bb_
FN:25,_RNvXs2_NvNtNtCs45dNDbvTNqu_21autd3_link_visualizer7backend6python1__NtB7_12PyPlotConfigINtNtCskFlZ8odJEjt_4pyo310conversion6IntoPyINtNtB1s_8instance2PyNtNtNtB1s_5types3any5PyAnyEE7into_py
FN:261,_RNvXs0_NtNtCs45dNDbvTNqu_21autd3_link_visualizer7backend6pythonNtB5_13PythonBackendNtB7_7Backend15plot_modulation
FN:26,_RNvXs2_NtNtCs45dNDbvTNqu_21autd3_link_visualizer7backend6pythonNtB5_12PyPlotConfigNtNtCsidEKlJ1ZQX8_4core3fmt5Debug3fmt
FN:25,_RNvXs0_NvNtNtCs45dNDbvTNqu_21autd3_link_visualizer7backend6python1__RNtB7_12PyPlotConfigNtNtNtCskFlZ8odJEjt_4pyo35impl_16extract_argument18PyFunctionArgument7extractBb_
FN:115,_RNvXs0_NtNtCs45dNDbvTNqu_21autd3_link_visualizer7backend6pythonNtB5_13PythonBackendNtB7_7Backend3new
FN:51,_RNvXNtNtCs45dNDbvTNqu_21autd3_link_visualizer7backend6pythonNtB2_12PyPlotConfigNtNtCsidEKlJ1ZQX8_4core7default7Default7default
FN:136,_RNCNvXs0_NtNtCs45dNDbvTNqu_21autd3_link_visualizer7backend6pythonNtB7_13PythonBackendNtB9_7Backend7plot_1ds_0Bb_
FN:183,_RNvXs0_NtNtCs45dNDbvTNqu_21autd3_link_visualizer7backend6pythonNtB5_13PythonBackendNtB7_7Backend7plot_2d
FN:265,_RNCNvXs0_NtNtCs45dNDbvTNqu_21autd3_link_visualizer7backend6pythonNtB7_13PythonBackendNtB9_7Backend15plot_modulation0Bb_
FN:312,_RNCNvXs0_NtNtCs45dNDbvTNqu_21autd3_link_visualizer7backend6pythonNtB7_13PythonBackendNtB9_7Backend10plot_phases0_0Bb_
FN:194,_RNCNvXs0_NtNtCs45dNDbvTNqu_21autd3_link_visualizer7backend6pythonNtB7_13PythonBackendNtB9_7Backend7plot_2d0Bb_
FN:119,_RNvXs0_NtNtCs45dNDbvTNqu_21autd3_link_visualizer7backend6pythonNtB5_13PythonBackendNtB7_7Backend10initialize
FN:305,_RNCNCNvXs0_NtNtCs45dNDbvTNqu_21autd3_link_visualizer7backend6pythonNtB9_13PythonBackendNtBb_7Backend10plot_phase00Bd_
FN:197,_RNCNvXs0_NtNtCs45dNDbvTNqu_21autd3_link_visualizer7backend6pythonNtB7_13PythonBackendNtB9_7Backend7plot_2ds_0Bb_
FN:309,_RNCNvXs0_NtNtCs45dNDbvTNqu_21autd3_link_visualizer7backend6pythonNtB7_13PythonBackendNtB9_7Backend10plot_phases_0Bb_
FN:26,_RNvXs1_NtNtCs45dNDbvTNqu_21autd3_link_visualizer7backend6pythonNtB5_12PyPlotConfigNtNtCsidEKlJ1ZQX8_4core5clone5Clone5cloneB9_
FN:298,_RNvXs0_NtNtCs45dNDbvTNqu_21autd3_link_visualizer7backend6pythonNtB5_13PythonBackendNtB7_7Backend10plot_phase
FN:305,_RNCNvXs0_NtNtCs45dNDbvTNqu_21autd3_link_visualizer7backend6pythonNtB7_13PythonBackendNtB9_7Backend10plot_phase0Bb_
FN:25,_RNvXs1_NvNtNtCs45dNDbvTNqu_21autd3_link_visualizer7backend6python1__QNtB7_12PyPlotConfigNtNtNtCskFlZ8odJEjt_4pyo35impl_16extract_argument18PyFunctionArgument7extractBb_
FN:309,_RNCNCNvXs0_NtNtCs45dNDbvTNqu_21autd3_link_visualizer7backend6pythonNtB9_13PythonBackendNtBb_7Backend10plot_phases_00Bd_
FN:72,_RNvMs_NtNtCs45dNDbvTNqu_21autd3_link_visualizer7backend6pythonNtB4_13PythonBackend17initialize_python
FN:124,_RNvXs0_NtNtCs45dNDbvTNqu_21autd3_link_visualizer7backend6pythonNtB5_13PythonBackendNtB7_7Backend7plot_1d
FN:25,_RNCNCNvXs3_NvNtNtCs45dNDbvTNqu_21autd3_link_visualizer7backend6python1__NtBb_12PyPlotConfigNtNtNtCskFlZ8odJEjt_4pyo35impl_7pyclass11PyClassImpl3doc00Bf_
FN:25,_RNvMs4_NvNtNtCs45dNDbvTNqu_21autd3_link_visualizer7backend6python1__NtB7_12PyPlotConfig21___pymethod_get_show__
FN:25,_RNvMs4_NvNtNtCs45dNDbvTNqu_21autd3_link_visualizer7backend6python1__NtB7_12PyPlotConfig26___pymethod_get_cbar_size__
FN:25,_RNvMs4_NvNtNtCs45dNDbvTNqu_21autd3_link_visualizer7backend6python1__NtB7_12PyPlotConfig22___pymethod_get_fname__
FN:25,_RNvMs4_NvNtNtCs45dNDbvTNqu_21autd3_link_visualizer7backend6python1__NtB7_12PyPlotConfig25___pymethod_get_cbar_pad__
FN:25,_RNvXs3_NvNtNtCs45dNDbvTNqu_21autd3_link_visualizer7backend6python1__NtB7_12PyPlotConfigNtNtNtCskFlZ8odJEjt_4pyo35impl_7pyclass11PyClassImpl10items_iter
FN:25,_RNvMs4_NvNtNtCs45dNDbvTNqu_21autd3_link_visualizer7backend6python1__NtB7_12PyPlotConfig25___pymethod_get_fontsize__
FN:25,_RNvMs4_NvNtNtCs45dNDbvTNqu_21autd3_link_visualizer7backend6python1__NtB7_12PyPlotConfig24___pymethod_get_figsize__
FN:25,_RNvXNvNtNtCs45dNDbvTNqu_21autd3_link_visualizer7backend6python1__NtB4_12PyPlotConfigNtNtCskFlZ8odJEjt_4pyo311type_object10PyTypeInfo15type_object_rawB8_
FN:25,_RNvMs4_NvNtNtCs45dNDbvTNqu_21autd3_link_visualizer7backend6python1__NtB7_12PyPlotConfig20___pymethod_get_dpi__
FN:25,_RNvXs3_NvNtNtCs45dNDbvTNqu_21autd3_link_visualizer7backend6python1__NtB7_12PyPlotConfigNtNtNtCskFlZ8odJEjt_4pyo35impl_7pyclass11PyClassImpl16lazy_type_object
FN:25,_RNvMs4_NvNtNtCs45dNDbvTNqu_21autd3_link_visualizer7backend6python1__NtB7_12PyPlotConfig30___pymethod_get_cbar_position__
FN:25,_RNvMs4_NvNtNtCs45dNDbvTNqu_21autd3_link_visualizer7backend6python1__NtB7_12PyPlotConfig27___pymethod_get_ticks_step__
FN:25,_RNvMs4_NvNtNtCs45dNDbvTNqu_21autd3_link_visualizer7backend6python1__NtB7_12PyPlotConfig21___pymethod_get_cmap__
FNDA:0,_RNCNvXs0_NtNtCs45dNDbvTNqu_21autd3_link_visualizer7backend6pythonNtB7_13PythonBackendNtB9_7Backend7plot_1d0Bb_
FNDA:0,_RNvXs2_NvNtNtCs45dNDbvTNqu_21autd3_link_visualizer7backend6python1__NtB7_12PyPlotConfigINtNtCskFlZ8odJEjt_4pyo310conversion6IntoPyINtNtB1s_8instance2PyNtNtNtB1s_5types3any5PyAnyEE7into_py
FNDA:0,_RNvXs0_NtNtCs45dNDbvTNqu_21autd3_link_visualizer7backend6pythonNtB5_13PythonBackendNtB7_7Backend15plot_modulation
FNDA:0,_RNvXs2_NtNtCs45dNDbvTNqu_21autd3_link_visualizer7backend6pythonNtB5_12PyPlotConfigNtNtCsidEKlJ1ZQX8_4core3fmt5Debug3fmt
FNDA:0,_RNvXs0_NvNtNtCs45dNDbvTNqu_21autd3_link_visualizer7backend6python1__RNtB7_12PyPlotConfigNtNtNtCskFlZ8odJEjt_4pyo35impl_16extract_argument18PyFunctionArgument7extractBb_
FNDA:0,_RNvXs0_NtNtCs45dNDbvTNqu_21autd3_link_visualizer7backend6pythonNtB5_13PythonBackendNtB7_7Backend3new
FNDA:0,_RNvXNtNtCs45dNDbvTNqu_21autd3_link_visualizer7backend6pythonNtB2_12PyPlotConfigNtNtCsidEKlJ1ZQX8_4core7default7Default7default
FNDA:0,_RNCNvXs0_NtNtCs45dNDbvTNqu_21autd3_link_visualizer7backend6pythonNtB7_13PythonBackendNtB9_7Backend7plot_1ds_0Bb_
FNDA:0,_RNvXs0_NtNtCs45dNDbvTNqu_21autd3_link_visualizer7backend6pythonNtB5_13PythonBackendNtB7_7Backend7plot_2d
FNDA:0,_RNCNvXs0_NtNtCs45dNDbvTNqu_21autd3_link_visualizer7backend6pythonNtB7_13PythonBackendNtB9_7Backend15plot_modulation0Bb_
FNDA:0,_RNCNvXs0_NtNtCs45dNDbvTNqu_21autd3_link_visualizer7backend6pythonNtB7_13PythonBackendNtB9_7Backend10plot_phases0_0Bb_
FNDA:0,_RNCNvXs0_NtNtCs45dNDbvTNqu_21autd3_link_visualizer7backend6pythonNtB7_13PythonBackendNtB9_7Backend7plot_2d0Bb_
FNDA:0,_RNvXs0_NtNtCs45dNDbvTNqu_21autd3_link_visualizer7backend6pythonNtB5_13PythonBackendNtB7_7Backend10initialize
FNDA:0,_RNCNCNvXs0_NtNtCs45dNDbvTNqu_21autd3_link_visualizer7backend6pythonNtB9_13PythonBackendNtBb_7Backend10plot_phase00Bd_
FNDA:0,_RNCNvXs0_NtNtCs45dNDbvTNqu_21autd3_link_visualizer7backend6pythonNtB7_13PythonBackendNtB9_7Backend7plot_2ds_0Bb_
FNDA:0,_RNCNvXs0_NtNtCs45dNDbvTNqu_21autd3_link_visualizer7backend6pythonNtB7_13PythonBackendNtB9_7Backend10plot_phases_0Bb_
FNDA:0,_RNvXs1_NtNtCs45dNDbvTNqu_21autd3_link_visualizer7backend6pythonNtB5_12PyPlotConfigNtNtCsidEKlJ1ZQX8_4core5clone5Clone5cloneB9_
FNDA:0,_RNvXs0_NtNtCs45dNDbvTNqu_21autd3_link_visualizer7backend6pythonNtB5_13PythonBackendNtB7_7Backend10plot_phase
FNDA:0,_RNCNvXs0_NtNtCs45dNDbvTNqu_21autd3_link_visualizer7backend6pythonNtB7_13PythonBackendNtB9_7Backend10plot_phase0Bb_
FNDA:0,_RNvXs1_NvNtNtCs45dNDbvTNqu_21autd3_link_visualizer7backend6python1__QNtB7_12PyPlotConfigNtNtNtCskFlZ8odJEjt_4pyo35impl_16extract_argument18PyFunctionArgument7extractBb_
FNDA:0,_RNCNCNvXs0_NtNtCs45dNDbvTNqu_21autd3_link_visualizer7backend6pythonNtB9_13PythonBackendNtBb_7Backend10plot_phases_00Bd_
FNDA:0,_RNvMs_NtNtCs45dNDbvTNqu_21autd3_link_visualizer7backend6pythonNtB4_13PythonBackend17initialize_python
FNDA:0,_RNvXs0_NtNtCs45dNDbvTNqu_21autd3_link_visualizer7backend6pythonNtB5_13PythonBackendNtB7_7Backend7plot_1d
FNDA:0,_RNCNCNvXs3_NvNtNtCs45dNDbvTNqu_21autd3_link_visualizer7backend6python1__NtBb_12PyPlotConfigNtNtNtCskFlZ8odJEjt_4pyo35impl_7pyclass11PyClassImpl3doc00Bf_
FNDA:0,_RNvMs4_NvNtNtCs45dNDbvTNqu_21autd3_link_visualizer7backend6python1__NtB7_12PyPlotConfig21___pymethod_get_show__
FNDA:0,_RNvMs4_NvNtNtCs45dNDbvTNqu_21autd3_link_visualizer7backend6python1__NtB7_12PyPlotConfig26___pymethod_get_cbar_size__
FNDA:0,_RNvMs4_NvNtNtCs45dNDbvTNqu_21autd3_link_visualizer7backend6python1__NtB7_12PyPlotConfig22___pymethod_get_fname__
FNDA:0,_RNvMs4_NvNtNtCs45dNDbvTNqu_21autd3_link_visualizer7backend6python1__NtB7_12PyPlotConfig25___pymethod_get_cbar_pad__
FNDA:0,_RNvXs3_NvNtNtCs45dNDbvTNqu_21autd3_link_visualizer7backend6python1__NtB7_12PyPlotConfigNtNtNtCskFlZ8odJEjt_4pyo35impl_7pyclass11PyClassImpl10items_iter
FNDA:0,_RNvMs4_NvNtNtCs45dNDbvTNqu_21autd3_link_visualizer7backend6python1__NtB7_12PyPlotConfig25___pymethod_get_fontsize__
FNDA:0,_RNvMs4_NvNtNtCs45dNDbvTNqu_21autd3_link_visualizer7backend6python1__NtB7_12PyPlotConfig24___pymethod_get_figsize__
FNDA:0,_RNvXNvNtNtCs45dNDbvTNqu_21autd3_link_visualizer7backend6python1__NtB4_12PyPlotConfigNtNtCskFlZ8odJEjt_4pyo311type_object10PyTypeInfo15type_object_rawB8_
FNDA:0,_RNvMs4_NvNtNtCs45dNDbvTNqu_21autd3_link_visualizer7backend6python1__NtB7_12PyPlotConfig20___pymethod_get_dpi__
FNDA:0,_RNvXs3_NvNtNtCs45dNDbvTNqu_21autd3_link_visualizer7backend6python1__NtB7_12PyPlotConfigNtNtNtCskFlZ8odJEjt_4pyo35impl_7pyclass11PyClassImpl16lazy_type_object
FNDA:0,_RNvMs4_NvNtNtCs45dNDbvTNqu_21autd3_link_visualizer7backend6python1__NtB7_12PyPlotConfig30___pymethod_get_cbar_position__
FNDA:0,_RNvMs4_NvNtNtCs45dNDbvTNqu_21autd3_link_visualizer7backend6python1__NtB7_12PyPlotConfig27___pymethod_get_ticks_step__
FNDA:0,_RNvMs4_NvNtNtCs45dNDbvTNqu_21autd3_link_visualizer7backend6python1__NtB7_12PyPlotConfig21___pymethod_get_cmap__
FNF:21
FNH:0
DA:25,0
DA:26,0
DA:51,0
DA:52,0
DA:53,0
DA:54,0
DA:55,0
DA:56,0
DA:57,0
DA:58,0
DA:59,0
DA:60,0
DA:61,0
DA:62,0
DA:63,0
DA:64,0
DA:72,0
DA:75,0
DA:76,0
DA:78,0
DA:79,0
DA:80,0
DA:83,0
DA:84,0
DA:86,0
DA:87,0
DA:88,0
DA:92,0
DA:93,0
DA:94,0
DA:95,0
DA:96,0
DA:97,0
DA:98,0
DA:99,0
DA:100,0
DA:101,0
DA:102,0
DA:103,0
DA:104,0
DA:115,0
DA:116,0
DA:117,0
DA:119,0
DA:120,0
DA:121,0
DA:122,0
DA:124,0
DA:125,0
DA:126,0
DA:127,0
DA:128,0
DA:129,0
DA:130,0
DA:131,0
DA:132,0
DA:133,0
DA:134,0
DA:135,0
DA:136,0
DA:137,0
DA:138,0
DA:139,0
DA:140,0
DA:141,0
DA:142,0
DA:143,0
DA:144,0
DA:145,0
DA:146,0
DA:147,0
DA:148,0
DA:149,0
DA:150,0
DA:151,0
DA:152,0
DA:153,0
DA:154,0
DA:155,0
DA:156,0
DA:157,0
DA:158,0
DA:159,0
DA:160,0
DA:161,0
DA:162,0
DA:163,0
DA:164,0
DA:165,0
DA:166,0
DA:167,0
DA:168,0
DA:169,0
DA:170,0
DA:171,0
DA:172,0
DA:173,0
DA:174,0
DA:175,0
DA:176,0
DA:177,0
DA:179,0
DA:180,0
DA:183,0
DA:184,0
DA:185,0
DA:186,0
DA:187,0
DA:188,0
DA:189,0
DA:190,0
DA:191,0
DA:192,0
DA:193,0
DA:194,0
DA:195,0
DA:196,0
DA:197,0
DA:198,0
DA:199,0
DA:200,0
DA:201,0
DA:202,0
DA:203,0
DA:204,0
DA:205,0
DA:206,0
DA:207,0
DA:208,0
DA:209,0
DA:210,0
DA:211,0
DA:212,0
DA:213,0
DA:214,0
DA:215,0
DA:216,0
DA:217,0
DA:218,0
DA:219,0
DA:220,0
DA:221,0
DA:222,0
DA:223,0
DA:224,0
DA:225,0
DA:226,0
DA:227,0
DA:228,0
DA:229,0
DA:230,0
DA:231,0
DA:232,0
DA:233,0
DA:234,0
DA:235,0
DA:236,0
DA:237,0
DA:238,0
DA:239,0
DA:240,0
DA:241,0
DA:242,0
DA:243,0
DA:244,0
DA:245,0
DA:246,0
DA:247,0
DA:248,0
DA:249,0
DA:250,0
DA:251,0
DA:252,0
DA:253,0
DA:254,0
DA:255,0
DA:256,0
DA:258,0
DA:259,0
DA:261,0
DA:262,0
DA:263,0
DA:264,0
DA:265,0
DA:266,0
DA:267,0
DA:268,0
DA:269,0
DA:270,0
DA:271,0
DA:272,0
DA:273,0
DA:274,0
DA:275,0
DA:276,0
DA:277,0
DA:278,0
DA:279,0
DA:280,0
DA:281,0
DA:282,0
DA:283,0
DA:284,0
DA:285,0
DA:286,0
DA:287,0
DA:288,0
DA:289,0
DA:290,0
DA:291,0
DA:292,0
DA:293,0
DA:295,0
DA:296,0
DA:298,0
DA:299,0
DA:300,0
DA:301,0
DA:302,0
DA:303,0
DA:304,0
DA:305,0
DA:306,0
DA:307,0
DA:308,0
DA:309,0
DA:310,0
DA:311,0
DA:312,0
DA:313,0
DA:314,0
DA:315,0
DA:316,0
DA:317,0
DA:318,0
DA:319,0
DA:320,0
DA:321,0
DA:322,0
DA:323,0
DA:324,0
DA:325,0
DA:326,0
DA:327,0
DA:328,0
DA:329,0
DA:330,0
DA:331,0
DA:332,0
DA:333,0
DA:334,0
DA:335,0
DA:336,0
DA:337,0
DA:338,0
DA:339,0
DA:340,0
DA:341,0
DA:342,0
DA:343,0
DA:344,0
DA:345,0
DA:346,0
DA:347,0
DA:348,0
DA:349,0
DA:350,0
DA:351,0
DA:352,0
DA:353,0
DA:354,0
DA:355,0
DA:356,0
DA:357,0
DA:358,0
DA:359,0
DA:360,0
DA:361,0
DA:362,0
DA:363,0
DA:364,0
DA:365,0
DA:366,0
DA:367,0
DA:368,0
DA:369,0
DA:370,0
DA:372,0
DA:373,0
BRF:0
BRH:0
LF:304
LH:0
end_of_record
SF:C:\Users\shun\Desktop\autd3\autd3-link-visualizer\src\colormap.rs
FN:17,_RNvNtCs45dNDbvTNqu_21autd3_link_visualizer8colormap3jet
FNDA:0,_RNvNtCs45dNDbvTNqu_21autd3_link_visualizer8colormap3jet
FNF:1
FNH:0
DA:17,0
DA:18,0
DA:19,0
DA:20,0
DA:21,0
DA:22,0
DA:23,0
DA:24,0
DA:25,0
DA:26,0
DA:27,0
DA:28,0
DA:29,0
DA:30,0
DA:31,0
DA:32,0
DA:33,0
DA:34,0
DA:35,0
DA:36,0
DA:37,0
DA:38,0
DA:39,0
DA:40,0
DA:41,0
DA:42,0
DA:43,0
DA:44,0
DA:45,0
DA:46,0
DA:47,0
DA:48,0
DA:49,0
DA:50,0
DA:51,0
DA:52,0
DA:53,0
DA:54,0
DA:55,0
DA:56,0
DA:57,0
DA:58,0
DA:59,0
DA:60,0
DA:61,0
DA:62,0
DA:63,0
DA:64,0
DA:65,0
DA:66,0
DA:67,0
DA:68,0
DA:69,0
DA:70,0
DA:71,0
DA:72,0
DA:73,0
DA:74,0
DA:75,0
DA:76,0
DA:77,0
DA:78,0
DA:79,0
DA:80,0
DA:81,0
DA:82,0
DA:83,0
DA:84,0
DA:85,0
DA:86,0
DA:87,0
DA:88,0
DA:89,0
DA:90,0
DA:91,0
DA:92,0
DA:93,0
DA:94,0
DA:95,0
DA:96,0
DA:97,0
DA:98,0
DA:99,0
DA:100,0
DA:101,0
DA:102,0
DA:103,0
DA:104,0
DA:105,0
DA:106,0
DA:107,0
DA:108,0
DA:109,0
DA:110,0
DA:111,0
DA:112,0
DA:113,0
DA:114,0
DA:115,0
DA:116,0
DA:117,0
DA:118,0
DA:119,0
DA:120,0
DA:121,0
DA:122,0
DA:123,0
DA:124,0
DA:125,0
DA:126,0
DA:127,0
DA:128,0
DA:129,0
DA:130,0
DA:131,0
DA:132,0
DA:133,0
DA:134,0
DA:135,0
DA:136,0
DA:137,0
DA:138,0
DA:139,0
DA:140,0
DA:141,0
DA:142,0
DA:143,0
DA:144,0
DA:145,0
DA:146,0
DA:147,0
DA:148,0
DA:149,0
DA:150,0
DA:151,0
DA:152,0
DA:153,0
DA:154,0
DA:155,0
DA:156,0
DA:157,0
DA:158,0
DA:159,0
DA:160,0
DA:161,0
DA:162,0
DA:163,0
DA:164,0
DA:165,0
DA:166,0
DA:167,0
DA:168,0
DA:169,0
DA:170,0
DA:171,0
DA:172,0
DA:173,0
DA:174,0
DA:175,0
DA:176,0
DA:177,0
DA:178,0
DA:179,0
DA:180,0
DA:181,0
DA:182,0
DA:183,0
DA:184,0
DA:185,0
DA:186,0
DA:187,0
DA:188,0
DA:189,0
DA:190,0
DA:191,0
DA:192,0
DA:193,0
DA:194,0
DA:195,0
DA:196,0
DA:197,0
DA:198,0
DA:199,0
DA:200,0
DA:201,0
DA:202,0
DA:203,0
DA:204,0
DA:205,0
DA:206,0
DA:207,0
DA:208,0
DA:209,0
DA:210,0
DA:211,0
DA:212,0
DA:213,0
DA:214,0
DA:215,0
DA:216,0
DA:217,0
DA:218,0
DA:219,0
DA:220,0
DA:221,0
DA:222,0
DA:223,0
DA:224,0
DA:225,0
DA:226,0
DA:227,0
DA:228,0
DA:229,0
DA:230,0
DA:231,0
DA:232,0
DA:233,0
DA:234,0
DA:235,0
DA:236,0
DA:237,0
DA:238,0
DA:239,0
DA:240,0
DA:241,0
DA:242,0
DA:243,0
DA:244,0
DA:245,0
DA:246,0
DA:247,0
DA:248,0
DA:249,0
DA:250,0
DA:251,0
DA:252,0
DA:253,0
DA:254,0
DA:255,0
DA:256,0
DA:257,0
DA:258,0
DA:259,0
DA:260,0
DA:261,0
DA:262,0
DA:263,0
DA:264,0
DA:265,0
DA:266,0
DA:267,0
DA:268,0
DA:269,0
DA:270,0
DA:271,0
DA:272,0
DA:273,0
DA:274,0
DA:275,0
DA:276,0
DA:277,0
DA:278,0
DA:279,0
BRF:0
BRH:0
LF:263
LH:0
end_of_record
SF:C:\Users\shun\Desktop\autd3\autd3-link-visualizer\src\error.rs
FN:93,_RNvXs2_NtCs45dNDbvTNqu_21autd3_link_visualizer5errorNtB5_15VisualizerErrorINtNtCsidEKlJ1ZQX8_4core7convert4FromNtNtNtCs9Z2GHSpztEp_3std2io5error5ErrorE4from
FN:87,_RNvXs1_NtCs45dNDbvTNqu_21autd3_link_visualizer5errorNtB5_15VisualizerErrorINtNtCsidEKlJ1ZQX8_4core7convert4FromNtNtCskFlZ8odJEjt_4pyo33err5PyErrE4from
FN:73,_RNvXININtCs45dNDbvTNqu_21autd3_link_visualizer5errors_0pENtB5_15VisualizerErrorINtNtCsidEKlJ1ZQX8_4core7convert4FromINtNtNtCsdIwCnRqffr_8plotters7drawing4area20DrawingAreaErrorKindpEE4fromB7_
FN:66,_RNvXNtCs45dNDbvTNqu_21autd3_link_visualizer5errorNtNtCs9XlkGIL39S1_12autd3_driver5error17AUTDInternalErrorINtNtCsidEKlJ1ZQX8_4core7convert4FromNtB2_15VisualizerErrorE4from
FN:80,_RNvXs0_NtCs45dNDbvTNqu_21autd3_link_visualizer5errorNtB5_15VisualizerErrorINtNtCsidEKlJ1ZQX8_4core7convert4FromNtNtCs1hQxqAosDGr_15plotters_bitmap5error18BitMapBackendErrorE4from
FN:20,_RNvXs4_NtCs45dNDbvTNqu_21autd3_link_visualizer5errorNtB5_15VisualizerErrorNtNtCsidEKlJ1ZQX8_4core3fmt7Display3fmt
FN:20,_RNvXs5_NtCs45dNDbvTNqu_21autd3_link_visualizer5errorNtB5_15VisualizerErrorNtNtCsidEKlJ1ZQX8_4core3fmt5Debug3fmt
FNDA:0,_RNvXs2_NtCs45dNDbvTNqu_21autd3_link_visualizer5errorNtB5_15VisualizerErrorINtNtCsidEKlJ1ZQX8_4core7convert4FromNtNtNtCs9Z2GHSpztEp_3std2io5error5ErrorE4from
FNDA:0,_RNvXs1_NtCs45dNDbvTNqu_21autd3_link_visualizer5errorNtB5_15VisualizerErrorINtNtCsidEKlJ1ZQX8_4core7convert4FromNtNtCskFlZ8odJEjt_4pyo33err5PyErrE4from
FNDA:0,_RNvXININtCs45dNDbvTNqu_21autd3_link_visualizer5errors_0pENtB5_15VisualizerErrorINtNtCsidEKlJ1ZQX8_4core7convert4FromINtNtNtCsdIwCnRqffr_8plotters7drawing4area20DrawingAreaErrorKindpEE4fromB7_
FNDA:0,_RNvXNtCs45dNDbvTNqu_21autd3_link_visualizer5errorNtNtCs9XlkGIL39S1_12autd3_driver5error17AUTDInternalErrorINtNtCsidEKlJ1ZQX8_4core7convert4FromNtB2_15VisualizerErrorE4from
FNDA:0,_RNvXs0_NtCs45dNDbvTNqu_21autd3_link_visualizer5errorNtB5_15VisualizerErrorINtNtCsidEKlJ1ZQX8_4core7convert4FromNtNtCs1hQxqAosDGr_15plotters_bitmap5error18BitMapBackendErrorE4from
FNDA:0,_RNvXs4_NtCs45dNDbvTNqu_21autd3_link_visualizer5errorNtB5_15VisualizerErrorNtNtCsidEKlJ1ZQX8_4core3fmt7Display3fmt
FNDA:0,_RNvXs5_NtCs45dNDbvTNqu_21autd3_link_visualizer5errorNtB5_15VisualizerErrorNtNtCsidEKlJ1ZQX8_4core3fmt5Debug3fmt
FNF:7
FNH:0
DA:20,0
DA:66,0
DA:67,0
DA:68,0
DA:73,0
DA:74,0
DA:75,0
DA:80,0
DA:81,0
DA:82,0
DA:87,0
DA:88,0
DA:89,0
DA:93,0
DA:94,0
DA:95,0
BRF:0
BRH:0
LF:17
LH:0
end_of_record
SF:C:\Users\shun\Desktop\autd3\autd3-link-visualizer\src\lib.rs
FN:48,_RNCNvXINICs45dNDbvTNqu_21autd3_link_visualizers7_0ppEINtB7_10VisualizerppENtNtCs9XlkGIL39S1_12autd3_driver4link4Link18wait_msg_processed0B7_
FN:188,_RNCNvMs_Cs45dNDbvTNqu_21autd3_link_visualizerNtB6_9PlotRange14observe_pointss0_0B6_
FN:79,_RNvXINICs45dNDbvTNqu_21autd3_link_visualizer0ppEINtB5_17VisualizerBuilderppENtNtCs9XlkGIL39S1_12autd3_driver4link15LinkSyncBuilder4openB5_
FN:427,_RNvMs5_Cs45dNDbvTNqu_21autd3_link_visualizerINtB5_10VisualizerppE10plot_fieldB5_
FN:124,_RNvMs_Cs45dNDbvTNqu_21autd3_link_visualizerNtB4_9PlotRange1n
FN:101,_RNCNvXINICs45dNDbvTNqu_21autd3_link_visualizer0ppEINtB7_17VisualizerBuilderppENtNtCs9XlkGIL39S1_12autd3_driver4link15LinkSyncBuilder4open0B7_
FN:333,_RNvMs5_Cs45dNDbvTNqu_21autd3_link_visualizerINtB5_10VisualizerppE11intensitiesB5_
FN:521,_RNCNvMs5_Cs45dNDbvTNqu_21autd3_link_visualizerINtB7_10VisualizerppE13plot_phase_of0B7_
FN:321,_RNCNCNvMs5_Cs45dNDbvTNqu_21autd3_link_visualizerINtB9_10VisualizerppE14intensities_of00B9_
FN:349,_RINvMs5_Cs45dNDbvTNqu_21autd3_link_visualizerINtB6_10VisualizerppE10calc_fieldpEB6_
FN:407,_RNCNCNCINvMs5_Cs45dNDbvTNqu_21autd3_link_visualizerINtBc_10VisualizerppE13calc_field_ofpE000Bc_
FN:140,_RNvMs_Cs45dNDbvTNqu_21autd3_link_visualizerNtB4_9PlotRange5is_1d
FN:365,_RINvMs5_Cs45dNDbvTNqu_21autd3_link_visualizerINtB6_10VisualizerppE13calc_field_ofpEB6_
FN:565,_RNCNvXINICs45dNDbvTNqu_21autd3_link_visualizers6_0ppEINtB7_10VisualizerppENtNtCs9XlkGIL39S1_12autd3_driver4link8LinkSync7receive0B7_
FN:402,_RNCNCINvMs5_Cs45dNDbvTNqu_21autd3_link_visualizerINtBa_10VisualizerppE13calc_field_ofpE00Ba_
FN:136,_RNvMs_Cs45dNDbvTNqu_21autd3_link_visualizerNtB4_9PlotRange2nz
FN:48,_RNvXINICs45dNDbvTNqu_21autd3_link_visualizers7_0ppEINtB5_10VisualizerppENtNtCs9XlkGIL39S1_12autd3_driver4link4Link7timeoutB5_
FN:573,_RNvXINICs45dNDbvTNqu_21autd3_link_visualizers6_0ppEINtB5_10VisualizerppENtNtCs9XlkGIL39S1_12autd3_driver4link8LinkSync7is_openB5_
FN:496,_RNvMs5_Cs45dNDbvTNqu_21autd3_link_visualizerINtB5_10VisualizerppE10plot_phaseB5_
FN:531,_RNCNvMs5_Cs45dNDbvTNqu_21autd3_link_visualizerINtB7_10VisualizerppE15plot_modulation0B7_
FN:553,_RNCNvXINICs45dNDbvTNqu_21autd3_link_visualizers6_0ppEINtB7_10VisualizerppENtNtCs9XlkGIL39S1_12autd3_driver4link8LinkSync4send0B7_
FN:445,_RNvMs5_Cs45dNDbvTNqu_21autd3_link_visualizerINtB5_10VisualizerppE13plot_field_ofB5_
FN:298,_RNCNvMs5_Cs45dNDbvTNqu_21autd3_link_visualizerINtB7_10VisualizerppE9phases_of0B7_
FN:48,_RNCNvXINICs45dNDbvTNqu_21autd3_link_visualizers8_0ppEINtB7_17VisualizerBuilderppENtNtCs9XlkGIL39S1_12autd3_driver4link11LinkBuilder4open0B7_
FN:539,_RNvXINICs45dNDbvTNqu_21autd3_link_visualizers6_0ppEINtB5_10VisualizerppENtNtCs9XlkGIL39S1_12autd3_driver4link8LinkSync5closeB5_
FN:255,_RINvMs4_Cs45dNDbvTNqu_21autd3_link_visualizerINtB6_17VisualizerBuilderppE16with_directivitypEB6_
FN:194,_RNCNvMs_Cs45dNDbvTNqu_21autd3_link_visualizerNtB6_9PlotRange14observe_pointss2_0B6_
FN:48,_RNCNvXINICs45dNDbvTNqu_21autd3_link_visualizers7_0ppEINtB7_10VisualizerppENtNtCs9XlkGIL39S1_12autd3_driver4link4Link7receive0B7_
FN:48,_RNCNvXINICs45dNDbvTNqu_21autd3_link_visualizers7_0ppEINtB7_10VisualizerppENtNtCs9XlkGIL39S1_12autd3_driver4link4Link12send_receive0B7_
FN:266,_RINvMs4_Cs45dNDbvTNqu_21autd3_link_visualizerINtB6_17VisualizerBuilderppE12with_backendpEB6_
FN:242,_RNvMs3_Cs45dNDbvTNqu_21autd3_link_visualizerINtB5_10VisualizerNtNtNtNtCs9XlkGIL39S1_12autd3_driver9acoustics11directivity6sphere6SphereNtNtNtB5_7backend4null11NullBackendE4null
FN:398,_RNCINvMs5_Cs45dNDbvTNqu_21autd3_link_visualizerINtB8_10VisualizerppE13calc_field_ofpE0B8_
FN:512,_RNvMs5_Cs45dNDbvTNqu_21autd3_link_visualizerINtB5_10VisualizerppE13plot_phase_ofB5_
FN:302,_RNCNCNvMs5_Cs45dNDbvTNqu_21autd3_link_visualizerINtB9_10VisualizerppE9phases_of00B9_
FN:48,_RNCNvXINICs45dNDbvTNqu_21autd3_link_visualizers7_0ppEINtB7_10VisualizerppENtNtCs9XlkGIL39S1_12autd3_driver4link4Link4send0B7_
FN:48,_RNCNvXINICs45dNDbvTNqu_21autd3_link_visualizers7_0ppEINtB7_10VisualizerppENtNtCs9XlkGIL39S1_12autd3_driver4link4Link5close0B7_
FN:314,_RNvMs5_Cs45dNDbvTNqu_21autd3_link_visualizerINtB5_10VisualizerppE14intensities_ofB5_
FN:157,_RNvMs_Cs45dNDbvTNqu_21autd3_link_visualizerNtB4_9PlotRange7observe
FN:197,_RNCNvMs_Cs45dNDbvTNqu_21autd3_link_visualizerNtB6_9PlotRange14observe_pointss3_0B6_
FN:229,_RNvMs2_Cs45dNDbvTNqu_21autd3_link_visualizerINtB5_10VisualizerNtNtNtNtCs9XlkGIL39S1_12autd3_driver9acoustics11directivity6sphere6SphereNtNtNtB5_7backend6python13PythonBackendE6python
FN:295,_RNvMs5_Cs45dNDbvTNqu_21autd3_link_visualizerINtB5_10VisualizerppE9phases_ofB5_
FN:328,_RNvMs5_Cs45dNDbvTNqu_21autd3_link_visualizerINtB5_10VisualizerppE6phasesB5_
FN:560,_RNvXINICs45dNDbvTNqu_21autd3_link_visualizers6_0ppEINtB5_10VisualizerppENtNtCs9XlkGIL39S1_12autd3_driver4link8LinkSync7receiveB5_
FN:147,_RNvMs_Cs45dNDbvTNqu_21autd3_link_visualizerNtB4_9PlotRange5is_2d
FN:173,_RNvMs_Cs45dNDbvTNqu_21autd3_link_visualizerNtB4_9PlotRange14observe_points
FN:178,_RNCNvMs_Cs45dNDbvTNqu_21autd3_link_visualizerNtB6_9PlotRange14observe_points0B6_
FN:48,_RNvXINICs45dNDbvTNqu_21autd3_link_visualizers7_0ppEINtB5_10VisualizerppENtNtCs9XlkGIL39S1_12autd3_driver4link4Link7is_openB5_
FN:200,_RNCNvMs_Cs45dNDbvTNqu_21autd3_link_visualizerNtB6_9PlotRange14observe_pointss4_0B6_
FN:115,_RNvXsa_Cs45dNDbvTNqu_21autd3_link_visualizerNtB5_9PlotRangeNtNtCsidEKlJ1ZQX8_4core3fmt5Debug3fmt
FN:577,_RNvXINICs45dNDbvTNqu_21autd3_link_visualizers6_0ppEINtB5_10VisualizerppENtNtCs9XlkGIL39S1_12autd3_driver4link8LinkSync7timeoutB5_
FN:191,_RNCNvMs_Cs45dNDbvTNqu_21autd3_link_visualizerNtB6_9PlotRange14observe_pointss1_0B6_
FN:169,_RNvMs_Cs45dNDbvTNqu_21autd3_link_visualizerNtB4_9PlotRange9observe_z
FN:221,_RNvMs1_Cs45dNDbvTNqu_21autd3_link_visualizerINtB5_10VisualizerNtNtNtNtCs9XlkGIL39S1_12autd3_driver9acoustics11directivity6sphere6SphereNtNtNtB5_7backend8plotters15PlottersBackendE8plotters
FN:527,_RNvMs5_Cs45dNDbvTNqu_21autd3_link_visualizerINtB5_10VisualizerppE15plot_modulationB5_
FN:548,_RNvXINICs45dNDbvTNqu_21autd3_link_visualizers6_0ppEINtB5_10VisualizerppENtNtCs9XlkGIL39S1_12autd3_driver4link8LinkSync4sendB5_
FN:115,_RNvXs9_Cs45dNDbvTNqu_21autd3_link_visualizerNtB5_9PlotRangeNtNtCsidEKlJ1ZQX8_4core5clone5Clone5cloneB5_
FN:317,_RNCNvMs5_Cs45dNDbvTNqu_21autd3_link_visualizerINtB7_10VisualizerppE14intensities_of0B7_
FN:165,_RNvMs_Cs45dNDbvTNqu_21autd3_link_visualizerNtB4_9PlotRange9observe_y
FN:158,_RNCNvMs_Cs45dNDbvTNqu_21autd3_link_visualizerNtB6_9PlotRange7observe0B6_
FN:132,_RNvMs_Cs45dNDbvTNqu_21autd3_link_visualizerNtB4_9PlotRange2ny
FN:161,_RNvMs_Cs45dNDbvTNqu_21autd3_link_visualizerNtB4_9PlotRange9observe_x
FN:183,_RNCNvMs_Cs45dNDbvTNqu_21autd3_link_visualizerNtB6_9PlotRange14observe_pointss_0B6_
FN:207,_RNvMs0_Cs45dNDbvTNqu_21autd3_link_visualizerINtB5_10VisualizerNtNtNtNtCs9XlkGIL39S1_12autd3_driver9acoustics11directivity6sphere6SphereNtNtNtB5_7backend8plotters15PlottersBackendE7builder
FN:338,_RNvMs5_Cs45dNDbvTNqu_21autd3_link_visualizerINtB5_10VisualizerppE10modulationB5_
FN:128,_RNvMs_Cs45dNDbvTNqu_21autd3_link_visualizerNtB4_9PlotRange2nx
FNDA:0,_RNCNvXINICs45dNDbvTNqu_21autd3_link_visualizers7_0ppEINtB7_10VisualizerppENtNtCs9XlkGIL39S1_12autd3_driver4link4Link18wait_msg_processed0B7_
FNDA:0,_RNCNvMs_Cs45dNDbvTNqu_21autd3_link_visualizerNtB6_9PlotRange14observe_pointss0_0B6_
FNDA:0,_RNvXINICs45dNDbvTNqu_21autd3_link_visualizer0ppEINtB5_17VisualizerBuilderppENtNtCs9XlkGIL39S1_12autd3_driver4link15LinkSyncBuilder4openB5_
FNDA:0,_RNvMs5_Cs45dNDbvTNqu_21autd3_link_visualizerINtB5_10VisualizerppE10plot_fieldB5_
FNDA:0,_RNvMs_Cs45dNDbvTNqu_21autd3_link_visualizerNtB4_9PlotRange1n
FNDA:0,_RNCNvXINICs45dNDbvTNqu_21autd3_link_visualizer0ppEINtB7_17VisualizerBuilderppENtNtCs9XlkGIL39S1_12autd3_driver4link15LinkSyncBuilder4open0B7_
FNDA:0,_RNvMs5_Cs45dNDbvTNqu_21autd3_link_visualizerINtB5_10VisualizerppE11intensitiesB5_
FNDA:0,_RNCNvMs5_Cs45dNDbvTNqu_21autd3_link_visualizerINtB7_10VisualizerppE13plot_phase_of0B7_
FNDA:0,_RNCNCNvMs5_Cs45dNDbvTNqu_21autd3_link_visualizerINtB9_10VisualizerppE14intensities_of00B9_
FNDA:0,_RINvMs5_Cs45dNDbvTNqu_21autd3_link_visualizerINtB6_10VisualizerppE10calc_fieldpEB6_
FNDA:0,_RNCNCNCINvMs5_Cs45dNDbvTNqu_21autd3_link_visualizerINtBc_10VisualizerppE13calc_field_ofpE000Bc_
FNDA:0,_RNvMs_Cs45dNDbvTNqu_21autd3_link_visualizerNtB4_9PlotRange5is_1d
FNDA:0,_RINvMs5_Cs45dNDbvTNqu_21autd3_link_visualizerINtB6_10VisualizerppE13calc_field_ofpEB6_
FNDA:0,_RNCNvXINICs45dNDbvTNqu_21autd3_link_visualizers6_0ppEINtB7_10VisualizerppENtNtCs9XlkGIL39S1_12autd3_driver4link8LinkSync7receive0B7_
FNDA:0,_RNCNCINvMs5_Cs45dNDbvTNqu_21autd3_link_visualizerINtBa_10VisualizerppE13calc_field_ofpE00Ba_
FNDA:0,_RNvMs_Cs45dNDbvTNqu_21autd3_link_visualizerNtB4_9PlotRange2nz
FNDA:0,_RNvXINICs45dNDbvTNqu_21autd3_link_visualizers7_0ppEINtB5_10VisualizerppENtNtCs9XlkGIL39S1_12autd3_driver4link4Link7timeoutB5_
FNDA:0,_RNvXINICs45dNDbvTNqu_21autd3_link_visualizers6_0ppEINtB5_10VisualizerppENtNtCs9XlkGIL39S1_12autd3_driver4link8LinkSync7is_openB5_
FNDA:0,_RNvMs5_Cs45dNDbvTNqu_21autd3_link_visualizerINtB5_10VisualizerppE10plot_phaseB5_
FNDA:0,_RNCNvMs5_Cs45dNDbvTNqu_21autd3_link_visualizerINtB7_10VisualizerppE15plot_modulation0B7_
FNDA:0,_RNCNvXINICs45dNDbvTNqu_21autd3_link_visualizers6_0ppEINtB7_10VisualizerppENtNtCs9XlkGIL39S1_12autd3_driver4link8LinkSync4send0B7_
FNDA:0,_RNvMs5_Cs45dNDbvTNqu_21autd3_link_visualizerINtB5_10VisualizerppE13plot_field_ofB5_
FNDA:0,_RNCNvMs5_Cs45dNDbvTNqu_21autd3_link_visualizerINtB7_10VisualizerppE9phases_of0B7_
FNDA:0,_RNCNvXINICs45dNDbvTNqu_21autd3_link_visualizers8_0ppEINtB7_17VisualizerBuilderppENtNtCs9XlkGIL39S1_12autd3_driver4link11LinkBuilder4open0B7_
FNDA:0,_RNvXINICs45dNDbvTNqu_21autd3_link_visualizers6_0ppEINtB5_10VisualizerppENtNtCs9XlkGIL39S1_12autd3_driver4link8LinkSync5closeB5_
FNDA:0,_RINvMs4_Cs45dNDbvTNqu_21autd3_link_visualizerINtB6_17VisualizerBuilderppE16with_directivitypEB6_
FNDA:0,_RNCNvMs_Cs45dNDbvTNqu_21autd3_link_visualizerNtB6_9PlotRange14observe_pointss2_0B6_
FNDA:0,_RNCNvXINICs45dNDbvTNqu_21autd3_link_visualizers7_0ppEINtB7_10VisualizerppENtNtCs9XlkGIL39S1_12autd3_driver4link4Link7receive0B7_
FNDA:0,_RNCNvXINICs45dNDbvTNqu_21autd3_link_visualizers7_0ppEINtB7_10VisualizerppENtNtCs9XlkGIL39S1_12autd3_driver4link4Link12send_receive0B7_
FNDA:0,_RINvMs4_Cs45dNDbvTNqu_21autd3_link_visualizerINtB6_17VisualizerBuilderppE12with_backendpEB6_
FNDA:0,_RNvMs3_Cs45dNDbvTNqu_21autd3_link_visualizerINtB5_10VisualizerNtNtNtNtCs9XlkGIL39S1_12autd3_driver9acoustics11directivity6sphere6SphereNtNtNtB5_7backend4null11NullBackendE4null
FNDA:0,_RNCINvMs5_Cs45dNDbvTNqu_21autd3_link_visualizerINtB8_10VisualizerppE13calc_field_ofpE0B8_
FNDA:0,_RNvMs5_Cs45dNDbvTNqu_21autd3_link_visualizerINtB5_10VisualizerppE13plot_phase_ofB5_
FNDA:0,_RNCNCNvMs5_Cs45dNDbvTNqu_21autd3_link_visualizerINtB9_10VisualizerppE9phases_of00B9_
FNDA:0,_RNCNvXINICs45dNDbvTNqu_21autd3_link_visualizers7_0ppEINtB7_10VisualizerppENtNtCs9XlkGIL39S1_12autd3_driver4link4Link4send0B7_
FNDA:0,_RNCNvXINICs45dNDbvTNqu_21autd3_link_visualizers7_0ppEINtB7_10VisualizerppENtNtCs9XlkGIL39S1_12autd3_driver4link4Link5close0B7_
FNDA:0,_RNvMs5_Cs45dNDbvTNqu_21autd3_link_visualizerINtB5_10VisualizerppE14intensities_ofB5_
FNDA:0,_RNvMs_Cs45dNDbvTNqu_21autd3_link_visualizerNtB4_9PlotRange7observe
FNDA:0,_RNCNvMs_Cs45dNDbvTNqu_21autd3_link_visualizerNtB6_9PlotRange14observe_pointss3_0B6_
FNDA:0,_RNvMs2_Cs45dNDbvTNqu_21autd3_link_visualizerINtB5_10VisualizerNtNtNtNtCs9XlkGIL39S1_12autd3_driver9acoustics11directivity6sphere6SphereNtNtNtB5_7backend6python13PythonBackendE6python
FNDA:0,_RNvMs5_Cs45dNDbvTNqu_21autd3_link_visualizerINtB5_10VisualizerppE9phases_ofB5_
FNDA:0,_RNvMs5_Cs45dNDbvTNqu_21autd3_link_visualizerINtB5_10VisualizerppE6phasesB5_
FNDA:0,_RNvXINICs45dNDbvTNqu_21autd3_link_visualizers6_0ppEINtB5_10VisualizerppENtNtCs9XlkGIL39S1_12autd3_driver4link8LinkSync7receiveB5_
FNDA:0,_RNvMs_Cs45dNDbvTNqu_21autd3_link_visualizerNtB4_9PlotRange5is_2d
FNDA:0,_RNvMs_Cs45dNDbvTNqu_21autd3_link_visualizerNtB4_9PlotRange14observe_points
FNDA:0,_RNCNvMs_Cs45dNDbvTNqu_21autd3_link_visualizerNtB6_9PlotRange14observe_points0B6_
FNDA:0,_RNvXINICs45dNDbvTNqu_21autd3_link_visualizers7_0ppEINtB5_10VisualizerppENtNtCs9XlkGIL39S1_12autd3_driver4link4Link7is_openB5_
FNDA:0,_RNCNvMs_Cs45dNDbvTNqu_21autd3_link_visualizerNtB6_9PlotRange14observe_pointss4_0B6_
FNDA:0,_RNvXsa_Cs45dNDbvTNqu_21autd3_link_visualizerNtB5_9PlotRangeNtNtCsidEKlJ1ZQX8_4core3fmt5Debug3fmt
FNDA:0,_RNvXINICs45dNDbvTNqu_21autd3_link_visualizers6_0ppEINtB5_10VisualizerppENtNtCs9XlkGIL39S1_12autd3_driver4link8LinkSync7timeoutB5_
FNDA:0,_RNCNvMs_Cs45dNDbvTNqu_21autd3_link_visualizerNtB6_9PlotRange14observe_pointss1_0B6_
FNDA:0,_RNvMs_Cs45dNDbvTNqu_21autd3_link_visualizerNtB4_9PlotRange9observe_z
FNDA:0,_RNvMs1_Cs45dNDbvTNqu_21autd3_link_visualizerINtB5_10VisualizerNtNtNtNtCs9XlkGIL39S1_12autd3_driver9acoustics11directivity6sphere6SphereNtNtNtB5_7backend8plotters15PlottersBackendE8plotters
FNDA:0,_RNvMs5_Cs45dNDbvTNqu_21autd3_link_visualizerINtB5_10VisualizerppE15plot_modulationB5_
FNDA:0,_RNvXINICs45dNDbvTNqu_21autd3_link_visualizers6_0ppEINtB5_10VisualizerppENtNtCs9XlkGIL39S1_12autd3_driver4link8LinkSync4sendB5_
FNDA:0,_RNvXs9_Cs45dNDbvTNqu_21autd3_link_visualizerNtB5_9PlotRangeNtNtCsidEKlJ1ZQX8_4core5clone5Clone5cloneB5_
FNDA:0,_RNCNvMs5_Cs45dNDbvTNqu_21autd3_link_visualizerINtB7_10VisualizerppE14intensities_of0B7_
FNDA:0,_RNvMs_Cs45dNDbvTNqu_21autd3_link_visualizerNtB4_9PlotRange9observe_y
FNDA:0,_RNCNvMs_Cs45dNDbvTNqu_21autd3_link_visualizerNtB6_9PlotRange7observe0B6_
FNDA:0,_RNvMs_Cs45dNDbvTNqu_21autd3_link_visualizerNtB4_9PlotRange2ny
FNDA:0,_RNvMs_Cs45dNDbvTNqu_21autd3_link_visualizerNtB4_9PlotRange9observe_x
FNDA:0,_RNCNvMs_Cs45dNDbvTNqu_21autd3_link_visualizerNtB6_9PlotRange14observe_pointss_0B6_
FNDA:0,_RNvMs0_Cs45dNDbvTNqu_21autd3_link_visualizerINtB5_10VisualizerNtNtNtNtCs9XlkGIL39S1_12autd3_driver9acoustics11directivity6sphere6SphereNtNtNtB5_7backend8plotters15PlottersBackendE7builder
FNDA:0,_RNvMs5_Cs45dNDbvTNqu_21autd3_link_visualizerINtB5_10VisualizerppE10modulationB5_
FNDA:0,_RNvMs_Cs45dNDbvTNqu_21autd3_link_visualizerNtB4_9PlotRange2nx
FNF:58
FNH:0
DA:48,0
DA:79,0
DA:80,0
DA:81,0
DA:82,0
DA:83,0
DA:84,0
DA:85,0
DA:86,0
DA:87,0
DA:88,0
DA:89,0
DA:90,0
DA:91,0
DA:92,0
DA:93,0
DA:95,0
DA:96,0
DA:97,0
DA:98,0
DA:99,0
DA:100,0
DA:101,0
DA:102,0
DA:103,0
DA:104,0
DA:105,0
DA:106,0
DA:107,0
DA:108,0
DA:109,0
DA:110,0
DA:111,0
DA:112,0
DA:115,0
DA:124,0
DA:125,0
DA:126,0
DA:128,0
DA:129,0
DA:130,0
DA:132,0
DA:133,0
DA:134,0
DA:136,0
DA:137,0
DA:138,0
DA:140,0
DA:141,0
DA:142,0
DA:145,0
DA:147,0
DA:148,0
DA:149,0
DA:150,0
DA:151,0
DA:152,0
DA:155,0
DA:157,0
DA:158,0
DA:159,0
DA:161,0
DA:162,0
DA:163,0
DA:165,0
DA:166,0
DA:167,0
DA:169,0
DA:170,0
DA:171,0
DA:173,0
DA:174,0
DA:175,0
DA:176,0
DA:177,0
DA:178,0
DA:179,0
DA:180,0
DA:181,0
DA:182,0
DA:183,0
DA:184,0
DA:185,0
DA:186,0
DA:187,0
DA:188,0
DA:189,0
DA:190,0
DA:191,0
DA:192,0
DA:193,0
DA:194,0
DA:195,0
DA:196,0
DA:197,0
DA:198,0
DA:199,0
DA:200,0
DA:201,0
DA:203,0
DA:207,0
DA:208,0
DA:209,0
DA:210,0
DA:211,0
DA:212,0
DA:213,0
DA:214,0
DA:215,0
DA:221,0
DA:222,0
DA:223,0
DA:229,0
DA:230,0
DA:231,0
DA:232,0
DA:233,0
DA:234,0
DA:235,0
DA:236,0
DA:237,0
DA:242,0
DA:243,0
DA:244,0
DA:245,0
DA:246,0
DA:247,0
DA:248,0
DA:249,0
DA:250,0
DA:255,0
DA:256,0
DA:257,0
DA:258,0
DA:259,0
DA:260,0
DA:261,0
DA:262,0
DA:263,0
DA:266,0
DA:267,0
DA:268,0
DA:269,0
DA:270,0
DA:271,0
DA:272,0
DA:273,0
DA:274,0
DA:295,0
DA:296,0
DA:297,0
DA:298,0
DA:299,0
DA:300,0
DA:301,0
DA:302,0
DA:303,0
DA:304,0
DA:305,0
DA:306,0
DA:314,0
DA:315,0
DA:316,0
DA:317,0
DA:318,0
DA:319,0
DA:320,0
DA:321,0
DA:322,0
DA:323,0
DA:324,0
DA:325,0
DA:328,0
DA:329,0
DA:330,0
DA:333,0
DA:334,0
DA:335,0
DA:338,0
DA:339,0
DA:340,0
DA:349,0
DA:350,0
DA:351,0
DA:352,0
DA:353,0
DA:354,0
DA:355,0
DA:365,0
DA:366,0
DA:367,0
DA:368,0
DA:369,0
DA:370,0
DA:371,0
DA:372,0
DA:373,0
DA:374,0
DA:375,0
DA:376,0
DA:377,0
DA:378,0
DA:379,0
DA:380,0
DA:381,0
DA:382,0
DA:383,0
DA:384,0
DA:385,0
DA:386,0
DA:387,0
DA:388,0
DA:389,0
DA:390,0
DA:391,0
DA:392,0
DA:393,0
DA:394,0
DA:395,0
DA:396,0
DA:397,0
DA:398,0
DA:399,0
DA:400,0
DA:401,0
DA:402,0
DA:403,0
DA:404,0
DA:405,0
DA:406,0
DA:407,0
DA:408,0
DA:409,0
DA:410,0
DA:411,0
DA:412,0
DA:413,0
DA:414,0
DA:415,0
DA:416,0
DA:417,0
DA:427,0
DA:428,0
DA:429,0
DA:430,0
DA:431,0
DA:432,0
DA:433,0
DA:434,0
DA:445,0
DA:446,0
DA:447,0
DA:448,0
DA:449,0
DA:450,0
DA:451,0
DA:452,0
DA:453,0
DA:454,0
DA:455,0
DA:456,0
DA:457,0
DA:458,0
DA:459,0
DA:461,0
DA:462,0
DA:463,0
DA:464,0
DA:465,0
DA:466,0
DA:467,0
DA:469,0
DA:470,0
DA:471,0
DA:472,0
DA:473,0
DA:475,0
DA:476,0
DA:477,0
DA:478,0
DA:479,0
DA:480,0
DA:481,0
DA:482,0
DA:483,0
DA:485,0
DA:487,0
DA:496,0
DA:497,0
DA:498,0
DA:499,0
DA:500,0
DA:501,0
DA:502,0
DA:512,0
DA:513,0
DA:514,0
DA:515,0
DA:516,0
DA:517,0
DA:518,0
DA:519,0
DA:520,0
DA:521,0
DA:522,0
DA:523,0
DA:524,0
DA:527,0
DA:528,0
DA:529,0
DA:530,0
DA:531,0
DA:532,0
DA:533,0
DA:534,0
DA:535,0
DA:539,0
DA:540,0
DA:541,0
DA:542,0
DA:543,0
DA:544,0
DA:545,0
DA:546,0
DA:548,0
DA:549,0
DA:550,0
DA:551,0
DA:552,0
DA:553,0
DA:554,0
DA:555,0
DA:556,0
DA:557,0
DA:558,0
DA:560,0
DA:561,0
DA:562,0
DA:563,0
DA:564,0
DA:565,0
DA:566,0
DA:567,0
DA:568,0
DA:569,0
DA:570,0
DA:571,0
DA:573,0
DA:574,0
DA:575,0
DA:577,0
DA:578,0
DA:579,0
BRF:0
BRH:0
LF:382
LH:0
end_of_record